   1              		.file	"gmatrix_linalg.c"
   2              		.section	.rodata.str1.4,"aMS",%progbits,1
   3              		.align	2
   4              	.LC0:
   5 0000 0A2A2A2A 		.ascii	"\012*** Warning ( %s ) in function %s\000"
   5      20576172 
   5      6E696E67 
   5      20282025 
   5      73202920 
   6 0023 00       		.align	2
   7              	.LC1:
   8 0024 704D6174 		.ascii	"pMat->Nr != pMat->Nc\000"
   8      2D3E4E72 
   8      20213D20 
   8      704D6174 
   8      2D3E4E63 
   9 0039 000000   		.align	2
  10              	.LC2:
  11 003c 50474D41 		.ascii	"PGMATRIX_DETERMINANT\000"
  11      54524958 
  11      5F444554 
  11      45524D49 
  11      4E414E54 
  12 0051 000000   		.align	2
  13              	.LC3:
  14 0054 0A41626F 		.ascii	"\012Aborting...\000"
  14      7274696E 
  14      672E2E2E 
  14      00
  15 0061 000000   		.align	2
  16              	.LC4:
  17 0064 704D6174 		.ascii	"pMat->Nr == 0\000"
  17      2D3E4E72 
  17      203D3D20 
  17      3000
  18 0072 0000     		.align	2
  19              	.LC5:
  20 0074 704D6174 		.ascii	"pMat->Nr != 3\000"
  20      2D3E4E72 
  20      20213D20 
  20      3300
  21              		.global	__mulsf3
  22              		.global	__subsf3
  23              		.global	__addsf3
  24              		.text
  25              		.align	2
  26              		.global	PGMATRIX_DETERMINANT3
  28              	PGMATRIX_DETERMINANT3:
  29              		@ args = 0, pretend = 0, frame = 8
  30              		@ frame_needed = 0, uses_anonymous_args = 0
  31 0000 F04F2DE9 		stmfd	sp!, {r4, r5, r6, r7, r8, r9, sl, fp, lr}
  32 0004 0C0090E8 		ldmia	r0, {r2, r3}	@ phole ldm
  33 0008 030052E1 		cmp	r2, r3
  34 000c 08D04DE2 		sub	sp, sp, #8
  35 0010 4C119F15 		ldrne	r1, .L12
  36 0014 4B00001A 		bne	.L9
  37 0018 000052E3 		cmp	r2, #0
  38 001c 4800000A 		beq	.L11
  39 0020 030052E3 		cmp	r2, #3
  40 0024 3C119F15 		ldrne	r1, .L12+4
  41 0028 4600001A 		bne	.L9
  42 002c 0C3090E5 		ldr	r3, [r0, #12]
  43 0030 0CC083E2 		add	ip, r3, #12
  44 0034 04209CE5 		ldr	r2, [ip, #4]	@ float
  45 0038 005093E5 		ldr	r5, [r3, #0]	@ float
  46 003c 00208DE5 		str	r2, [sp, #0]	@ float
  47 0040 182083E2 		add	r2, r3, #24
  48 0044 086092E5 		ldr	r6, [r2, #8]	@ float
  49 0048 049092E5 		ldr	r9, [r2, #4]	@ float
  50 004c 082093E5 		ldr	r2, [r3, #8]	@ float
  51 0050 00109DE5 		ldr	r1, [sp, #0]	@ float
  52 0054 0500A0E1 		mov	r0, r5
  53 0058 08809CE5 		ldr	r8, [ip, #8]	@ float
  54 005c 047093E5 		ldr	r7, [r3, #4]	@ float
  55 0060 0CA093E5 		ldr	sl, [r3, #12]	@ float
  56 0064 18B093E5 		ldr	fp, [r3, #24]	@ float
  57 0068 04208DE5 		str	r2, [sp, #4]	@ float
  58 006c FEFFFFEB 		bl	__mulsf3
  59 0070 0610A0E1 		mov	r1, r6
  60 0074 FEFFFFEB 		bl	__mulsf3
  61 0078 0910A0E1 		mov	r1, r9
  62 007c 0040A0E1 		mov	r4, r0
  63 0080 0500A0E1 		mov	r0, r5
  64 0084 FEFFFFEB 		bl	__mulsf3
  65 0088 0810A0E1 		mov	r1, r8
  66 008c FEFFFFEB 		bl	__mulsf3
  67 0090 0010A0E1 		mov	r1, r0
  68 0094 0400A0E1 		mov	r0, r4
  69 0098 FEFFFFEB 		bl	__subsf3
  70 009c 0A10A0E1 		mov	r1, sl
  71 00a0 0040A0E1 		mov	r4, r0
  72 00a4 0700A0E1 		mov	r0, r7
  73 00a8 FEFFFFEB 		bl	__mulsf3
  74 00ac 0010A0E1 		mov	r1, r0
  75 00b0 0600A0E1 		mov	r0, r6
  76 00b4 FEFFFFEB 		bl	__mulsf3
  77 00b8 0010A0E1 		mov	r1, r0
  78 00bc 0400A0E1 		mov	r0, r4
  79 00c0 FEFFFFEB 		bl	__subsf3
  80 00c4 0B10A0E1 		mov	r1, fp
  81 00c8 0040A0E1 		mov	r4, r0
  82 00cc 0700A0E1 		mov	r0, r7
  83 00d0 FEFFFFEB 		bl	__mulsf3
  84 00d4 0010A0E1 		mov	r1, r0
  85 00d8 0800A0E1 		mov	r0, r8
  86 00dc FEFFFFEB 		bl	__mulsf3
  87 00e0 0010A0E1 		mov	r1, r0
  88 00e4 0400A0E1 		mov	r0, r4
  89 00e8 FEFFFFEB 		bl	__addsf3
  90 00ec 04109DE5 		ldr	r1, [sp, #4]	@ float
  91 00f0 0040A0E1 		mov	r4, r0
  92 00f4 0A00A0E1 		mov	r0, sl
  93 00f8 FEFFFFEB 		bl	__mulsf3
  94 00fc 0010A0E1 		mov	r1, r0
  95 0100 0900A0E1 		mov	r0, r9
  96 0104 FEFFFFEB 		bl	__mulsf3
  97 0108 0010A0E1 		mov	r1, r0
  98 010c 0400A0E1 		mov	r0, r4
  99 0110 FEFFFFEB 		bl	__addsf3
 100 0114 04109DE5 		ldr	r1, [sp, #4]	@ float
 101 0118 0040A0E1 		mov	r4, r0
 102 011c 0B00A0E1 		mov	r0, fp
 103 0120 FEFFFFEB 		bl	__mulsf3
 104 0124 0010A0E1 		mov	r1, r0
 105 0128 00009DE5 		ldr	r0, [sp, #0]	@ float
 106 012c FEFFFFEB 		bl	__mulsf3
 107 0130 0010A0E1 		mov	r1, r0
 108 0134 0400A0E1 		mov	r0, r4
 109 0138 FEFFFFEB 		bl	__subsf3
 110 013c 08D08DE2 		add	sp, sp, #8
 111 0140 F08FBDE8 		ldmfd	sp!, {r4, r5, r6, r7, r8, r9, sl, fp, pc}
 112              	.L11:
 113 0144 20109FE5 		ldr	r1, .L12+8
 114              	.L9:
 115 0148 20209FE5 		ldr	r2, .L12+12
 116 014c 20009FE5 		ldr	r0, .L12+16
 117 0150 FEFFFFEB 		bl	printf
 118 0154 1C009FE5 		ldr	r0, .L12+20
 119 0158 FEFFFFEB 		bl	printf
 120 015c 0100A0E3 		mov	r0, #1
 121 0160 FEFFFFEB 		bl	exit
 122              	.L13:
 123              		.align	2
 124              	.L12:
 125 0164 24000000 		.word	.LC1
 126 0168 74000000 		.word	.LC5
 127 016c 64000000 		.word	.LC4
 128 0170 3C000000 		.word	.LC2
 129 0174 00000000 		.word	.LC0
 130 0178 54000000 		.word	.LC3
 132              		.section	.rodata.str1.4
 133 0082 0000     		.align	2
 134              	.LC6:
 135 0084 704D6174 		.ascii	"pMat->Nr != 2\000"
 135      2D3E4E72 
 135      20213D20 
 135      3200
 136              		.text
 137              		.align	2
 138              		.global	PGMATRIX_DETERMINANT2
 140              	PGMATRIX_DETERMINANT2:
 141              		@ args = 0, pretend = 0, frame = 0
 142              		@ frame_needed = 0, uses_anonymous_args = 0
 143 017c 0C0090E8 		ldmia	r0, {r2, r3}	@ phole ldm
 144 0180 030052E1 		cmp	r2, r3
 145 0184 30402DE9 		stmfd	sp!, {r4, r5, lr}
 146 0188 64109F15 		ldrne	r1, .L24
 147 018c 1100001A 		bne	.L22
 148 0190 000052E3 		cmp	r2, #0
 149 0194 0E00000A 		beq	.L23
 150 0198 020052E3 		cmp	r2, #2
 151 019c 54109F15 		ldrne	r1, .L24+4
 152 01a0 0C00001A 		bne	.L22
 153 01a4 0C4090E5 		ldr	r4, [r0, #12]
 154 01a8 001094E5 		ldr	r1, [r4, #0]	@ float
 155 01ac 0C0094E5 		ldr	r0, [r4, #12]	@ float
 156 01b0 FEFFFFEB 		bl	__mulsf3
 157 01b4 041094E5 		ldr	r1, [r4, #4]	@ float
 158 01b8 0050A0E1 		mov	r5, r0
 159 01bc 080094E5 		ldr	r0, [r4, #8]	@ float
 160 01c0 FEFFFFEB 		bl	__mulsf3
 161 01c4 0010A0E1 		mov	r1, r0
 162 01c8 0500A0E1 		mov	r0, r5
 163 01cc FEFFFFEB 		bl	__subsf3
 164 01d0 3080BDE8 		ldmfd	sp!, {r4, r5, pc}
 165              	.L23:
 166 01d4 20109FE5 		ldr	r1, .L24+8
 167              	.L22:
 168 01d8 20209FE5 		ldr	r2, .L24+12
 169 01dc 20009FE5 		ldr	r0, .L24+16
 170 01e0 FEFFFFEB 		bl	printf
 171 01e4 1C009FE5 		ldr	r0, .L24+20
 172 01e8 FEFFFFEB 		bl	printf
 173 01ec 0100A0E3 		mov	r0, #1
 174 01f0 FEFFFFEB 		bl	exit
 175              	.L25:
 176              		.align	2
 177              	.L24:
 178 01f4 24000000 		.word	.LC1
 179 01f8 84000000 		.word	.LC6
 180 01fc 64000000 		.word	.LC4
 181 0200 3C000000 		.word	.LC2
 182 0204 00000000 		.word	.LC0
 183 0208 54000000 		.word	.LC3
 185              		.section	.rodata.str1.4
 186 0092 0000     		.align	2
 187              	.LC7:
 188 0094 70412D3E 		.ascii	"pA->Nr != pA->Nc\000"
 188      4E722021 
 188      3D207041 
 188      2D3E4E63 
 188      00
 189 00a5 000000   		.align	2
 190              	.LC8:
 191 00a8 50474D41 		.ascii	"PGMATRIX_GAUSSJORDAN\000"
 191      54524958 
 191      5F474155 
 191      53534A4F 
 191      5244414E 
 192 00bd 000000   		.align	2
 193              	.LC9:
 194 00c0 70412D3E 		.ascii	"pA->Nr != pB->Nr\000"
 194      4E722021 
 194      3D207042 
 194      2D3E4E72 
 194      00
 195              		.global	__lesf2
 196 00d1 000000   		.align	2
 197              	.LC10:
 198 00d4 3100     		.ascii	"1\000"
 199 00d6 0000     		.align	2
 200              	.LC11:
 201 00d8 50474D41 		.ascii	"PGMATRIX_GAUSSJORDAN: Singular matrix (step 1)\000"
 201      54524958 
 201      5F474155 
 201      53534A4F 
 201      5244414E 
 202              		.global	__eqsf2
 203 0107 00       		.align	2
 204              	.LC12:
 205 0108 50474D41 		.ascii	"PGMATRIX_GAUSSJORDAN: Singular matrix (step 2)\000"
 205      54524958 
 205      5F474155 
 205      53534A4F 
 205      5244414E 
 206              		.global	__divsf3
 207              		.text
 208              		.align	2
 209              		.global	PGMATRIX_GAUSSJORDAN
 211              	PGMATRIX_GAUSSJORDAN:
 212              		@ args = 0, pretend = 0, frame = 84
 213              		@ frame_needed = 0, uses_anonymous_args = 0
 214 020c F04F2DE9 		stmfd	sp!, {r4, r5, r6, r7, r8, r9, sl, fp, lr}
 215 0210 00C092E5 		ldr	ip, [r2, #0]
 216 0214 0240A0E1 		mov	r4, r2
 217 0218 042092E5 		ldr	r2, [r2, #4]
 218 021c 54D04DE2 		sub	sp, sp, #84
 219 0220 02005CE1 		cmp	ip, r2
 220 0224 18108DE5 		str	r1, [sp, #24]
 221 0228 1C008DE5 		str	r0, [sp, #28]
 222 022c 14308DE5 		str	r3, [sp, #20]
 223 0230 64159F15 		ldrne	r1, .L113
 224 0234 5301001A 		bne	.L107
 225 0238 18009DE5 		ldr	r0, [sp, #24]
 226 023c 14109DE5 		ldr	r1, [sp, #20]
 227 0240 000050E3 		cmp	r0, #0
 228 0244 00005113 		cmpne	r1, #0
 229 0248 0130A003 		moveq	r3, #1
 230 024c 40308D05 		streq	r3, [sp, #64]
 231 0250 0400000A 		beq	.L33
 232 0254 003091E5 		ldr	r3, [r1, #0]
 233 0258 03005CE1 		cmp	ip, r3
 234 025c 0020A003 		moveq	r2, #0
 235 0260 40208D05 		streq	r2, [sp, #64]
 236 0264 4601001A 		bne	.L109
 237              	.L33:
 238 0268 1C509DE5 		ldr	r5, [sp, #28]
 239 026c 050054E1 		cmp	r4, r5
 240 0270 0500A011 		movne	r0, r5
 241 0274 0410A011 		movne	r1, r4
 242 0278 FEFFFF1B 		blne	PGMATRIX_COPY
 243              	.L34:
 244 027c 40C09DE5 		ldr	ip, [sp, #64]
 245 0280 00005CE3 		cmp	ip, #0
 246 0284 3601000A 		beq	.L110
 247              	.L36:
 248 0288 000094E5 		ldr	r0, [r4, #0]
 249 028c 0001A0E1 		mov	r0, r0, asl #2
 250 0290 040080E2 		add	r0, r0, #4
 251 0294 FEFFFFEB 		bl	malloc
 252 0298 10008DE5 		str	r0, [sp, #16]
 253 029c 000094E5 		ldr	r0, [r4, #0]
 254 02a0 0001A0E1 		mov	r0, r0, asl #2
 255 02a4 040080E2 		add	r0, r0, #4
 256 02a8 FEFFFFEB 		bl	malloc
 257 02ac 0C008DE5 		str	r0, [sp, #12]
 258 02b0 000094E5 		ldr	r0, [r4, #0]
 259 02b4 0001A0E1 		mov	r0, r0, asl #2
 260 02b8 040080E2 		add	r0, r0, #4
 261 02bc FEFFFFEB 		bl	malloc
 262 02c0 007094E5 		ldr	r7, [r4, #0]
 263 02c4 000057E3 		cmp	r7, #0
 264 02c8 08008DE5 		str	r0, [sp, #8]
 265 02cc 1C0100DA 		ble	.L38
 266 02d0 0100A0E3 		mov	r0, #1
 267 02d4 50008DE5 		str	r0, [sp, #80]
 268 02d8 44708DE5 		str	r7, [sp, #68]
 269 02dc 003087E0 		add	r3, r7, r0
 270 02e0 0020A0E3 		mov	r2, #0
 271              	.L40:
 272 02e4 50109DE5 		ldr	r1, [sp, #80]
 273 02e8 08509DE5 		ldr	r5, [sp, #8]
 274 02ec 012185E7 		str	r2, [r5, r1, asl #2]
 275 02f0 011081E2 		add	r1, r1, #1
 276 02f4 030051E1 		cmp	r1, r3
 277 02f8 50108DE5 		str	r1, [sp, #80]
 278 02fc F8FFFF1A 		bne	.L40
 279 0300 01C0A0E3 		mov	ip, #1
 280 0304 040085E2 		add	r0, r5, #4
 281 0308 30208DE5 		str	r2, [sp, #48]
 282 030c 34208DE5 		str	r2, [sp, #52]
 283 0310 2CC08DE5 		str	ip, [sp, #44]
 284 0314 00008DE5 		str	r0, [sp, #0]
 285              	.L42:
 286 0318 00909DE5 		ldr	r9, [sp, #0]
 287 031c 00B0A0E3 		mov	fp, #0
 288 0320 0160A0E3 		mov	r6, #1
 289              	.L43:
 290 0324 003099E5 		ldr	r3, [r9, #0]
 291 0328 010053E3 		cmp	r3, #1
 292 032c 2300000A 		beq	.L44
 293 0330 0150A0E3 		mov	r5, #1
 294 0334 130000EA 		b	.L46
 295              	.L111:
 296 0338 1C209DE5 		ldr	r2, [sp, #28]
 297 033c 00A092E5 		ldr	sl, [r2, #0]
 298 0340 013045E2 		sub	r3, r5, #1
 299 0344 9A6322E0 		mla	r2, sl, r3, r6
 300 0348 1C309DE5 		ldr	r3, [sp, #28]
 301 034c 0C8093E5 		ldr	r8, [r3, #12]
 302 0350 0221A0E1 		mov	r2, r2, asl #2
 303 0354 082082E0 		add	r2, r2, r8
 304 0358 043012E5 		ldr	r3, [r2, #-4]
 305 035c 0241C3E3 		bic	r4, r3, #-2147483648
 306 0360 0B00A0E1 		mov	r0, fp
 307 0364 0410A0E1 		mov	r1, r4
 308 0368 FEFFFFEB 		bl	__lesf2
 309 036c 000050E3 		cmp	r0, #0
 310 0370 30508DD5 		strle	r5, [sp, #48]
 311 0374 34608DD5 		strle	r6, [sp, #52]
 312 0378 04B0A0D1 		movle	fp, r4
 313              	.L49:
 314 037c 015085E2 		add	r5, r5, #1
 315 0380 050057E1 		cmp	r7, r5
 316 0384 0D0000BA 		blt	.L44
 317              	.L46:
 318 0388 08109DE5 		ldr	r1, [sp, #8]
 319 038c 053191E7 		ldr	r3, [r1, r5, asl #2]
 320 0390 000053E3 		cmp	r3, #0
 321 0394 E7FFFF0A 		beq	.L111
 322 0398 010053E3 		cmp	r3, #1
 323 039c F6FFFFDA 		ble	.L49
 324 03a0 F8139FE5 		ldr	r1, .L113+4
 325 03a4 F8239FE5 		ldr	r2, .L113+8
 326              	.L108:
 327 03a8 F8039FE5 		ldr	r0, .L113+12
 328 03ac FEFFFFEB 		bl	printf
 329 03b0 F4039FE5 		ldr	r0, .L113+16
 330 03b4 FEFFFFEB 		bl	printf
 331 03b8 0100A0E3 		mov	r0, #1
 332 03bc FEFFFFEB 		bl	exit
 333              	.L44:
 334 03c0 016086E2 		add	r6, r6, #1
 335 03c4 060057E1 		cmp	r7, r6
 336 03c8 049089E2 		add	r9, r9, #4
 337 03cc D4FFFFAA 		bge	.L43
 338 03d0 30509DE5 		ldr	r5, [sp, #48]
 339 03d4 08C09DE5 		ldr	ip, [sp, #8]
 340 03d8 0551A0E1 		mov	r5, r5, asl #2
 341 03dc 05309CE7 		ldr	r3, [ip, r5]
 342 03e0 34009DE5 		ldr	r0, [sp, #52]
 343 03e4 30109DE5 		ldr	r1, [sp, #48]
 344 03e8 013083E2 		add	r3, r3, #1
 345 03ec 010050E1 		cmp	r0, r1
 346 03f0 20508DE5 		str	r5, [sp, #32]
 347 03f4 05308CE7 		str	r3, [ip, r5]
 348 03f8 DD00000A 		beq	.L85
 349 03fc 1C208DE2 		add	r2, sp, #28
 350 0400 0C0092E8 		ldmia	r2, {r2, r3}	@ phole ldm
 351 0404 0C8092E5 		ldr	r8, [r2, #12]
 352 0408 00A092E5 		ldr	sl, [r2, #0]
 353 040c 0051A0E1 		mov	r5, r0, asl #2
 354 0410 0AE1A0E1 		mov	lr, sl, asl #2
 355 0414 050088E0 		add	r0, r8, r5
 356 0418 031088E0 		add	r1, r8, r3
 357 041c 00C0A0E3 		mov	ip, #0
 358              	.L56:
 359 0420 042010E5 		ldr	r2, [r0, #-4]	@ float
 360 0424 043011E5 		ldr	r3, [r1, #-4]	@ float
 361 0428 01C08CE2 		add	ip, ip, #1
 362 042c 07005CE1 		cmp	ip, r7
 363 0430 043000E5 		str	r3, [r0, #-4]	@ float
 364 0434 042001E5 		str	r2, [r1, #-4]	@ float
 365 0438 0E0080E0 		add	r0, r0, lr
 366 043c 0E1081E0 		add	r1, r1, lr
 367 0440 F6FFFF1A 		bne	.L56
 368 0444 40C09DE5 		ldr	ip, [sp, #64]
 369 0448 00005CE3 		cmp	ip, #0
 370 044c 1300001A 		bne	.L54
 371 0450 14009DE5 		ldr	r0, [sp, #20]
 372 0454 044090E5 		ldr	r4, [r0, #4]
 373 0458 000054E3 		cmp	r4, #0
 374 045c 0F0000DA 		ble	.L54
 375 0460 18109DE5 		ldr	r1, [sp, #24]
 376 0464 003091E5 		ldr	r3, [r1, #0]
 377 0468 0C2091E5 		ldr	r2, [r1, #12]
 378 046c 03E1A0E1 		mov	lr, r3, asl #2
 379 0470 20309DE5 		ldr	r3, [sp, #32]
 380 0474 050082E0 		add	r0, r2, r5
 381 0478 031082E0 		add	r1, r2, r3
 382              	.L60:
 383 047c 042010E5 		ldr	r2, [r0, #-4]	@ float
 384 0480 043011E5 		ldr	r3, [r1, #-4]	@ float
 385 0484 01C08CE2 		add	ip, ip, #1
 386 0488 04005CE1 		cmp	ip, r4
 387 048c 043000E5 		str	r3, [r0, #-4]	@ float
 388 0490 042001E5 		str	r2, [r1, #-4]	@ float
 389 0494 0E0080E0 		add	r0, r0, lr
 390 0498 0E1081E0 		add	r1, r1, lr
 391 049c F6FFFF1A 		bne	.L60
 392              	.L54:
 393 04a0 30C09DE5 		ldr	ip, [sp, #48]
 394 04a4 01204CE2 		sub	r2, ip, #1
 395 04a8 9A0202E0 		mul	r2, sl, r2
 396 04ac 0C3082E0 		add	r3, r2, ip
 397 04b0 0331A0E1 		mov	r3, r3, asl #2
 398 04b4 28208DE5 		str	r2, [sp, #40]
 399 04b8 035088E0 		add	r5, r8, r3
 400 04bc 2C209DE5 		ldr	r2, [sp, #44]
 401 04c0 34C09DE5 		ldr	ip, [sp, #52]
 402 04c4 0C309DE5 		ldr	r3, [sp, #12]
 403 04c8 044015E5 		ldr	r4, [r5, #-4]	@ float
 404 04cc 02C183E7 		str	ip, [r3, r2, asl #2]
 405 04d0 30C09DE5 		ldr	ip, [sp, #48]
 406 04d4 10309DE5 		ldr	r3, [sp, #16]
 407 04d8 0010A0E3 		mov	r1, #0
 408 04dc 0400A0E1 		mov	r0, r4
 409 04e0 02C183E7 		str	ip, [r3, r2, asl #2]
 410 04e4 FEFFFFEB 		bl	__eqsf2
 411 04e8 000050E3 		cmp	r0, #0
 412 04ec A700000A 		beq	.L112
 413 04f0 0410A0E1 		mov	r1, r4
 414 04f4 FE05A0E3 		mov	r0, #1065353216
 415 04f8 FEFFFFEB 		bl	__divsf3
 416 04fc 0060A0E1 		mov	r6, r0
 417 0500 20009DE5 		ldr	r0, [sp, #32]
 418 0504 000088E0 		add	r0, r8, r0
 419 0508 FE35A0E3 		mov	r3, #1065353216
 420 050c 04008DE5 		str	r0, [sp, #4]
 421 0510 043005E5 		str	r3, [r5, #-4]	@ float
 422 0514 0AB1A0E1 		mov	fp, sl, asl #2
 423 0518 0040A0E1 		mov	r4, r0
 424 051c 0050A0E3 		mov	r5, #0
 425              	.L64:
 426 0520 040014E5 		ldr	r0, [r4, #-4]	@ float
 427 0524 0610A0E1 		mov	r1, r6
 428 0528 FEFFFFEB 		bl	__mulsf3
 429 052c 015085E2 		add	r5, r5, #1
 430 0530 070055E1 		cmp	r5, r7
 431 0534 040004E5 		str	r0, [r4, #-4]	@ float
 432 0538 0B4084E0 		add	r4, r4, fp
 433 053c F7FFFF1A 		bne	.L64
 434 0540 40109DE5 		ldr	r1, [sp, #64]
 435 0544 000051E3 		cmp	r1, #0
 436 0548 1400001A 		bne	.L66
 437 054c 14209DE5 		ldr	r2, [sp, #20]
 438 0550 042092E5 		ldr	r2, [r2, #4]
 439 0554 000052E3 		cmp	r2, #0
 440 0558 24208DE5 		str	r2, [sp, #36]
 441 055c 0F0000DA 		ble	.L66
 442 0560 18509DE5 		ldr	r5, [sp, #24]
 443 0564 20C09DE5 		ldr	ip, [sp, #32]
 444 0568 003095E5 		ldr	r3, [r5, #0]
 445 056c 0C2095E5 		ldr	r2, [r5, #12]
 446 0570 0391A0E1 		mov	r9, r3, asl #2
 447 0574 02408CE0 		add	r4, ip, r2
 448 0578 0150A0E1 		mov	r5, r1
 449              	.L69:
 450 057c 040014E5 		ldr	r0, [r4, #-4]	@ float
 451 0580 0610A0E1 		mov	r1, r6
 452 0584 FEFFFFEB 		bl	__mulsf3
 453 0588 24109DE5 		ldr	r1, [sp, #36]
 454 058c 015085E2 		add	r5, r5, #1
 455 0590 010055E1 		cmp	r5, r1
 456 0594 040004E5 		str	r0, [r4, #-4]	@ float
 457 0598 094084E0 		add	r4, r4, r9
 458 059c F6FFFF1A 		bne	.L69
 459              	.L66:
 460 05a0 28209DE5 		ldr	r2, [sp, #40]
 461 05a4 0231A0E1 		mov	r3, r2, asl #2
 462 05a8 033088E0 		add	r3, r8, r3
 463 05ac 48308DE5 		str	r3, [sp, #72]
 464 05b0 0130A0E3 		mov	r3, #1
 465 05b4 38308DE5 		str	r3, [sp, #56]
 466              	.L70:
 467 05b8 38509DE5 		ldr	r5, [sp, #56]
 468 05bc 30C09DE5 		ldr	ip, [sp, #48]
 469 05c0 0C0055E1 		cmp	r5, ip
 470 05c4 3200000A 		beq	.L71
 471 05c8 48009DE5 		ldr	r0, [sp, #72]
 472 05cc 48109DE5 		ldr	r1, [sp, #72]
 473 05d0 000090E5 		ldr	r0, [r0, #0]	@ float
 474 05d4 0030A0E3 		mov	r3, #0
 475 05d8 0591A0E1 		mov	r9, r5, asl #2
 476 05dc 3C008DE5 		str	r0, [sp, #60]	@ float
 477 05e0 003081E5 		str	r3, [r1, #0]	@ float
 478 05e4 04509DE5 		ldr	r5, [sp, #4]
 479 05e8 094088E0 		add	r4, r8, r9
 480 05ec 0060A0E3 		mov	r6, #0
 481              	.L73:
 482 05f0 041015E5 		ldr	r1, [r5, #-4]	@ float
 483 05f4 3C009DE5 		ldr	r0, [sp, #60]	@ float
 484 05f8 FEFFFFEB 		bl	__mulsf3
 485 05fc 0010A0E1 		mov	r1, r0
 486 0600 040014E5 		ldr	r0, [r4, #-4]	@ float
 487 0604 FEFFFFEB 		bl	__subsf3
 488 0608 016086E2 		add	r6, r6, #1
 489 060c 070056E1 		cmp	r6, r7
 490 0610 040004E5 		str	r0, [r4, #-4]	@ float
 491 0614 0B5085E0 		add	r5, r5, fp
 492 0618 0B4084E0 		add	r4, r4, fp
 493 061c F3FFFF1A 		bne	.L73
 494 0620 40209DE5 		ldr	r2, [sp, #64]
 495 0624 000052E3 		cmp	r2, #0
 496 0628 1900001A 		bne	.L71
 497 062c 14309DE5 		ldr	r3, [sp, #20]
 498 0630 043093E5 		ldr	r3, [r3, #4]
 499 0634 000053E3 		cmp	r3, #0
 500 0638 4C308DE5 		str	r3, [sp, #76]
 501 063c 140000DA 		ble	.L71
 502 0640 18509DE5 		ldr	r5, [sp, #24]
 503 0644 20C09DE5 		ldr	ip, [sp, #32]
 504 0648 0C2095E5 		ldr	r2, [r5, #12]
 505 064c 003095E5 		ldr	r3, [r5, #0]
 506 0650 40609DE5 		ldr	r6, [sp, #64]
 507 0654 094082E0 		add	r4, r2, r9
 508 0658 0C5082E0 		add	r5, r2, ip
 509 065c 0391A0E1 		mov	r9, r3, asl #2
 510              	.L77:
 511 0660 041015E5 		ldr	r1, [r5, #-4]	@ float
 512 0664 3C009DE5 		ldr	r0, [sp, #60]	@ float
 513 0668 FEFFFFEB 		bl	__mulsf3
 514 066c 0010A0E1 		mov	r1, r0
 515 0670 040014E5 		ldr	r0, [r4, #-4]	@ float
 516 0674 FEFFFFEB 		bl	__subsf3
 517 0678 4C109DE5 		ldr	r1, [sp, #76]
 518 067c 016086E2 		add	r6, r6, #1
 519 0680 010056E1 		cmp	r6, r1
 520 0684 040004E5 		str	r0, [r4, #-4]	@ float
 521 0688 095085E0 		add	r5, r5, r9
 522 068c 094084E0 		add	r4, r4, r9
 523 0690 F2FFFF1A 		bne	.L77
 524              	.L71:
 525 0694 38209DE5 		ldr	r2, [sp, #56]
 526 0698 48509DE5 		ldr	r5, [sp, #72]
 527 069c 50309DE5 		ldr	r3, [sp, #80]
 528 06a0 012082E2 		add	r2, r2, #1
 529 06a4 045085E2 		add	r5, r5, #4
 530 06a8 030052E1 		cmp	r2, r3
 531 06ac 38208DE5 		str	r2, [sp, #56]
 532 06b0 48508DE5 		str	r5, [sp, #72]
 533 06b4 BFFFFF1A 		bne	.L70
 534 06b8 2CC09DE5 		ldr	ip, [sp, #44]
 535 06bc 01C08CE2 		add	ip, ip, #1
 536 06c0 0C0057E1 		cmp	r7, ip
 537 06c4 2CC08DE5 		str	ip, [sp, #44]
 538 06c8 12FFFFAA 		bge	.L42
 539 06cc 10009DE5 		ldr	r0, [sp, #16]
 540 06d0 0C109DE5 		ldr	r1, [sp, #12]
 541 06d4 0731A0E1 		mov	r3, r7, asl #2
 542 06d8 034080E0 		add	r4, r0, r3
 543 06dc 03E081E0 		add	lr, r1, r3
 544              	.L80:
 545 06e0 00109EE5 		ldr	r1, [lr, #0]
 546 06e4 000094E5 		ldr	r0, [r4, #0]
 547 06e8 000051E1 		cmp	r1, r0
 548 06ec 1000000A 		beq	.L81
 549 06f0 011041E2 		sub	r1, r1, #1
 550 06f4 010040E2 		sub	r0, r0, #1
 551 06f8 910A03E0 		mul	r3, r1, sl
 552 06fc 9A0002E0 		mul	r2, sl, r0
 553 0700 0331A0E1 		mov	r3, r3, asl #2
 554 0704 0221A0E1 		mov	r2, r2, asl #2
 555 0708 081083E0 		add	r1, r3, r8
 556 070c 020088E0 		add	r0, r8, r2
 557 0710 00C0A0E3 		mov	ip, #0
 558              	.L83:
 559 0714 44509DE5 		ldr	r5, [sp, #68]
 560 0718 002091E5 		ldr	r2, [r1, #0]	@ float
 561 071c 003090E5 		ldr	r3, [r0, #0]	@ float
 562 0720 01C08CE2 		add	ip, ip, #1
 563 0724 05005CE1 		cmp	ip, r5
 564 0728 043081E4 		str	r3, [r1], #4	@ float
 565 072c 042080E4 		str	r2, [r0], #4	@ float
 566 0730 F7FFFF1A 		bne	.L83
 567              	.L81:
 568 0734 017057E2 		subs	r7, r7, #1
 569 0738 04E04EE2 		sub	lr, lr, #4
 570 073c 044044E2 		sub	r4, r4, #4
 571 0740 E6FFFF1A 		bne	.L80
 572              	.L38:
 573 0744 08009DE5 		ldr	r0, [sp, #8]
 574 0748 FEFFFFEB 		bl	free
 575 074c 0C009DE5 		ldr	r0, [sp, #12]
 576 0750 FEFFFFEB 		bl	free
 577 0754 10009DE5 		ldr	r0, [sp, #16]
 578 0758 54D08DE2 		add	sp, sp, #84
 579 075c F04FBDE8 		ldmfd	sp!, {r4, r5, r6, r7, r8, r9, sl, fp, lr}
 580 0760 FEFFFFEA 		b	free
 581              	.L110:
 582 0764 18009DE5 		ldr	r0, [sp, #24]
 583 0768 14109DE5 		ldr	r1, [sp, #20]
 584 076c FEFFFFEB 		bl	PGMATRIX_COPY
 585 0770 C4FEFFEA 		b	.L36
 586              	.L85:
 587 0774 1C509DE5 		ldr	r5, [sp, #28]
 588 0778 00A095E5 		ldr	sl, [r5, #0]
 589 077c 0C8095E5 		ldr	r8, [r5, #12]
 590 0780 46FFFFEA 		b	.L54
 591              	.L109:
 592 0784 24109FE5 		ldr	r1, .L113+20
 593              	.L107:
 594 0788 24209FE5 		ldr	r2, .L113+24
 595 078c 05FFFFEA 		b	.L108
 596              	.L112:
 597 0790 08109FE5 		ldr	r1, .L113+4
 598 0794 1C209FE5 		ldr	r2, .L113+28
 599 0798 02FFFFEA 		b	.L108
 600              	.L114:
 601              		.align	2
 602              	.L113:
 603 079c 94000000 		.word	.LC7
 604 07a0 D4000000 		.word	.LC10
 605 07a4 D8000000 		.word	.LC11
 606 07a8 00000000 		.word	.LC0
 607 07ac 54000000 		.word	.LC3
 608 07b0 C0000000 		.word	.LC9
 609 07b4 A8000000 		.word	.LC8
 610 07b8 08010000 		.word	.LC12
 612              		.section	.rodata.str1.4
 613 0137 00       		.align	2
 614              	.LC13:
 615 0138 50474D41 		.ascii	"PGMATRIX_INVERSE3_COPY\000"
 615      54524958 
 615      5F494E56 
 615      45525345 
 615      335F434F 
 616              		.global	__extendsfdf2
 617              		.global	__gedf2
 618              		.text
 619              		.align	2
 620              		.global	PGMATRIX_INVERSE3_COPY
 622              	PGMATRIX_INVERSE3_COPY:
 623              		@ args = 0, pretend = 0, frame = 16
 624              		@ frame_needed = 0, uses_anonymous_args = 0
 625 07bc F04F2DE9 		stmfd	sp!, {r4, r5, r6, r7, r8, r9, sl, fp, lr}
 626 07c0 0140A0E1 		mov	r4, r1
 627 07c4 043094E5 		ldr	r3, [r4, #4]
 628 07c8 001091E5 		ldr	r1, [r1, #0]
 629 07cc 030051E1 		cmp	r1, r3
 630 07d0 10D04DE2 		sub	sp, sp, #16
 631 07d4 0080A0E1 		mov	r8, r0
 632 07d8 C8129F15 		ldrne	r1, .L129+8
 633 07dc A800001A 		bne	.L127
 634 07e0 000051E3 		cmp	r1, #0
 635 07e4 A500000A 		beq	.L128
 636 07e8 030051E3 		cmp	r1, #3
 637 07ec B8129F15 		ldrne	r1, .L129+12
 638 07f0 A300001A 		bne	.L127
 639 07f4 0120A0E1 		mov	r2, r1
 640 07f8 FEFFFFEB 		bl	PGMATRIX_SETSIZE
 641 07fc 0400A0E1 		mov	r0, r4
 642 0800 FEFFFFEB 		bl	PGMATRIX_DETERMINANT3
 643 0804 00B0A0E1 		mov	fp, r0
 644 0808 0201C0E3 		bic	r0, r0, #-2147483648
 645 080c FEFFFFEB 		bl	__extendsfdf2
 646 0810 A22F8FE2 		adr	r2, .L129
 647 0814 0C0092E8 		ldmia	r2, {r2-r3}
 648 0818 FEFFFFEB 		bl	__gedf2
 649 081c 000050E3 		cmp	r0, #0
 650 0820 8F0000BA 		blt	.L122
 651 0824 003094E5 		ldr	r3, [r4, #0]
 652 0828 0C4094E5 		ldr	r4, [r4, #12]
 653 082c 8391A0E1 		mov	r9, r3, asl #3
 654 0830 0331A0E1 		mov	r3, r3, asl #2
 655 0834 03A084E0 		add	sl, r4, r3
 656 0838 096084E0 		add	r6, r4, r9
 657 083c 081096E5 		ldr	r1, [r6, #8]	@ float
 658 0840 04009AE5 		ldr	r0, [sl, #4]	@ float
 659 0844 00308DE5 		str	r3, [sp, #0]
 660 0848 FEFFFFEB 		bl	__mulsf3
 661 084c 08109AE5 		ldr	r1, [sl, #8]	@ float
 662 0850 0050A0E1 		mov	r5, r0
 663 0854 040096E5 		ldr	r0, [r6, #4]	@ float
 664 0858 FEFFFFEB 		bl	__mulsf3
 665 085c 0010A0E1 		mov	r1, r0
 666 0860 0500A0E1 		mov	r0, r5
 667 0864 FEFFFFEB 		bl	__subsf3
 668 0868 0B10A0E1 		mov	r1, fp
 669 086c FEFFFFEB 		bl	__divsf3
 670 0870 0C7098E5 		ldr	r7, [r8, #12]
 671 0874 00309DE5 		ldr	r3, [sp, #0]
 672 0878 000087E5 		str	r0, [r7, #0]	@ float
 673 087c 030094E7 		ldr	r0, [r4, r3]	@ float
 674 0880 081096E5 		ldr	r1, [r6, #8]	@ float
 675 0884 FEFFFFEB 		bl	__mulsf3
 676 0888 08109AE5 		ldr	r1, [sl, #8]	@ float
 677 088c 0050A0E1 		mov	r5, r0
 678 0890 090094E7 		ldr	r0, [r4, r9]	@ float
 679 0894 FEFFFFEB 		bl	__mulsf3
 680 0898 0010A0E1 		mov	r1, r0
 681 089c 0500A0E1 		mov	r0, r5
 682 08a0 FEFFFFEB 		bl	__subsf3
 683 08a4 0B10A0E1 		mov	r1, fp
 684 08a8 020180E2 		add	r0, r0, #-2147483648
 685 08ac FEFFFFEB 		bl	__divsf3
 686 08b0 008098E5 		ldr	r8, [r8, #0]
 687 08b4 0831A0E1 		mov	r3, r8, asl #2
 688 08b8 030087E7 		str	r0, [r7, r3]	@ float
 689 08bc 04308DE5 		str	r3, [sp, #4]
 690 08c0 00309DE5 		ldr	r3, [sp, #0]
 691 08c4 041096E5 		ldr	r1, [r6, #4]	@ float
 692 08c8 030094E7 		ldr	r0, [r4, r3]	@ float
 693 08cc FEFFFFEB 		bl	__mulsf3
 694 08d0 04109AE5 		ldr	r1, [sl, #4]	@ float
 695 08d4 0050A0E1 		mov	r5, r0
 696 08d8 090094E7 		ldr	r0, [r4, r9]	@ float
 697 08dc FEFFFFEB 		bl	__mulsf3
 698 08e0 0010A0E1 		mov	r1, r0
 699 08e4 0500A0E1 		mov	r0, r5
 700 08e8 FEFFFFEB 		bl	__subsf3
 701 08ec 0B10A0E1 		mov	r1, fp
 702 08f0 FEFFFFEB 		bl	__divsf3
 703 08f4 8881A0E1 		mov	r8, r8, asl #3
 704 08f8 080087E7 		str	r0, [r7, r8]	@ float
 705 08fc 081096E5 		ldr	r1, [r6, #8]	@ float
 706 0900 040094E5 		ldr	r0, [r4, #4]	@ float
 707 0904 FEFFFFEB 		bl	__mulsf3
 708 0908 081094E5 		ldr	r1, [r4, #8]	@ float
 709 090c 0050A0E1 		mov	r5, r0
 710 0910 040096E5 		ldr	r0, [r6, #4]	@ float
 711 0914 FEFFFFEB 		bl	__mulsf3
 712 0918 0010A0E1 		mov	r1, r0
 713 091c 0500A0E1 		mov	r0, r5
 714 0920 FEFFFFEB 		bl	__subsf3
 715 0924 0B10A0E1 		mov	r1, fp
 716 0928 020180E2 		add	r0, r0, #-2147483648
 717 092c FEFFFFEB 		bl	__divsf3
 718 0930 040087E5 		str	r0, [r7, #4]	@ float
 719 0934 081096E5 		ldr	r1, [r6, #8]	@ float
 720 0938 000094E5 		ldr	r0, [r4, #0]	@ float
 721 093c FEFFFFEB 		bl	__mulsf3
 722 0940 081094E5 		ldr	r1, [r4, #8]	@ float
 723 0944 0050A0E1 		mov	r5, r0
 724 0948 090094E7 		ldr	r0, [r4, r9]	@ float
 725 094c FEFFFFEB 		bl	__mulsf3
 726 0950 0010A0E1 		mov	r1, r0
 727 0954 0500A0E1 		mov	r0, r5
 728 0958 FEFFFFEB 		bl	__subsf3
 729 095c 0B10A0E1 		mov	r1, fp
 730 0960 FEFFFFEB 		bl	__divsf3
 731 0964 04309DE5 		ldr	r3, [sp, #4]
 732 0968 033087E0 		add	r3, r7, r3
 733 096c 040083E5 		str	r0, [r3, #4]	@ float
 734 0970 041096E5 		ldr	r1, [r6, #4]	@ float
 735 0974 000094E5 		ldr	r0, [r4, #0]	@ float
 736 0978 08308DE5 		str	r3, [sp, #8]
 737 097c FEFFFFEB 		bl	__mulsf3
 738 0980 041094E5 		ldr	r1, [r4, #4]	@ float
 739 0984 0050A0E1 		mov	r5, r0
 740 0988 090094E7 		ldr	r0, [r4, r9]	@ float
 741 098c FEFFFFEB 		bl	__mulsf3
 742 0990 0010A0E1 		mov	r1, r0
 743 0994 0500A0E1 		mov	r0, r5
 744 0998 FEFFFFEB 		bl	__subsf3
 745 099c 0B10A0E1 		mov	r1, fp
 746 09a0 020180E2 		add	r0, r0, #-2147483648
 747 09a4 FEFFFFEB 		bl	__divsf3
 748 09a8 088087E0 		add	r8, r7, r8
 749 09ac 040088E5 		str	r0, [r8, #4]	@ float
 750 09b0 08109AE5 		ldr	r1, [sl, #8]	@ float
 751 09b4 040094E5 		ldr	r0, [r4, #4]	@ float
 752 09b8 FEFFFFEB 		bl	__mulsf3
 753 09bc 081094E5 		ldr	r1, [r4, #8]	@ float
 754 09c0 0050A0E1 		mov	r5, r0
 755 09c4 04009AE5 		ldr	r0, [sl, #4]	@ float
 756 09c8 FEFFFFEB 		bl	__mulsf3
 757 09cc 0010A0E1 		mov	r1, r0
 758 09d0 0500A0E1 		mov	r0, r5
 759 09d4 FEFFFFEB 		bl	__subsf3
 760 09d8 0B10A0E1 		mov	r1, fp
 761 09dc FEFFFFEB 		bl	__divsf3
 762 09e0 080087E5 		str	r0, [r7, #8]	@ float
 763 09e4 08109AE5 		ldr	r1, [sl, #8]	@ float
 764 09e8 000094E5 		ldr	r0, [r4, #0]	@ float
 765 09ec FEFFFFEB 		bl	__mulsf3
 766 09f0 00309DE5 		ldr	r3, [sp, #0]
 767 09f4 081094E5 		ldr	r1, [r4, #8]	@ float
 768 09f8 0050A0E1 		mov	r5, r0
 769 09fc 030094E7 		ldr	r0, [r4, r3]	@ float
 770 0a00 FEFFFFEB 		bl	__mulsf3
 771 0a04 0010A0E1 		mov	r1, r0
 772 0a08 0500A0E1 		mov	r0, r5
 773 0a0c FEFFFFEB 		bl	__subsf3
 774 0a10 0B10A0E1 		mov	r1, fp
 775 0a14 020180E2 		add	r0, r0, #-2147483648
 776 0a18 FEFFFFEB 		bl	__divsf3
 777 0a1c 08309DE5 		ldr	r3, [sp, #8]
 778 0a20 080083E5 		str	r0, [r3, #8]	@ float
 779 0a24 04109AE5 		ldr	r1, [sl, #4]	@ float
 780 0a28 000094E5 		ldr	r0, [r4, #0]	@ float
 781 0a2c FEFFFFEB 		bl	__mulsf3
 782 0a30 00309DE5 		ldr	r3, [sp, #0]
 783 0a34 041094E5 		ldr	r1, [r4, #4]	@ float
 784 0a38 0050A0E1 		mov	r5, r0
 785 0a3c 030094E7 		ldr	r0, [r4, r3]	@ float
 786 0a40 FEFFFFEB 		bl	__mulsf3
 787 0a44 0010A0E1 		mov	r1, r0
 788 0a48 0500A0E1 		mov	r0, r5
 789 0a4c FEFFFFEB 		bl	__subsf3
 790 0a50 0B10A0E1 		mov	r1, fp
 791 0a54 FEFFFFEB 		bl	__divsf3
 792 0a58 080088E5 		str	r0, [r8, #8]	@ float
 793 0a5c 10D08DE2 		add	sp, sp, #16
 794 0a60 F08FBDE8 		ldmfd	sp!, {r4, r5, r6, r7, r8, r9, sl, fp, pc}
 795              	.L122:
 796 0a64 0010A0E3 		mov	r1, #0
 797 0a68 0800A0E1 		mov	r0, r8
 798 0a6c 0420A0E1 		mov	r2, r4
 799 0a70 0130A0E1 		mov	r3, r1
 800 0a74 10D08DE2 		add	sp, sp, #16
 801 0a78 F04FBDE8 		ldmfd	sp!, {r4, r5, r6, r7, r8, r9, sl, fp, lr}
 802 0a7c FEFFFFEA 		b	PGMATRIX_GAUSSJORDAN
 803              	.L128:
 804 0a80 28109FE5 		ldr	r1, .L129+16
 805              	.L127:
 806 0a84 28209FE5 		ldr	r2, .L129+20
 807 0a88 28009FE5 		ldr	r0, .L129+24
 808 0a8c FEFFFFEB 		bl	printf
 809 0a90 24009FE5 		ldr	r0, .L129+28
 810 0a94 FEFFFFEB 		bl	printf
 811 0a98 0100A0E3 		mov	r0, #1
 812 0a9c FEFFFFEB 		bl	exit
 813              	.L130:
 814              		.align	2
 815              	.L129:
 816 0aa0 9997713D 		.word	1030854553
 817 0aa4 11EA2D81 		.word	-2127697391
 818 0aa8 24000000 		.word	.LC1
 819 0aac 74000000 		.word	.LC5
 820 0ab0 64000000 		.word	.LC4
 821 0ab4 38010000 		.word	.LC13
 822 0ab8 00000000 		.word	.LC0
 823 0abc 54000000 		.word	.LC3
 825              		.section	.rodata.str1.4
 826 014f 00       		.align	2
 827              	.LC14:
 828 0150 50474D41 		.ascii	"PGMATRIX_INVERSE2_COPY\000"
 828      54524958 
 828      5F494E56 
 828      45525345 
 828      325F434F 
 829              		.text
 830              		.align	2
 831              		.global	PGMATRIX_INVERSE2_COPY
 833              	PGMATRIX_INVERSE2_COPY:
 834              		@ args = 0, pretend = 0, frame = 0
 835              		@ frame_needed = 0, uses_anonymous_args = 0
 836 0ac0 F0412DE9 		stmfd	sp!, {r4, r5, r6, r7, r8, lr}
 837 0ac4 0150A0E1 		mov	r5, r1
 838 0ac8 043095E5 		ldr	r3, [r5, #4]
 839 0acc 001091E5 		ldr	r1, [r1, #0]
 840 0ad0 030051E1 		cmp	r1, r3
 841 0ad4 0060A0E1 		mov	r6, r0
 842 0ad8 F0109F15 		ldrne	r1, .L145+8
 843 0adc 3200001A 		bne	.L143
 844 0ae0 000051E3 		cmp	r1, #0
 845 0ae4 2F00000A 		beq	.L144
 846 0ae8 020051E3 		cmp	r1, #2
 847 0aec E0109F15 		ldrne	r1, .L145+12
 848 0af0 2D00001A 		bne	.L143
 849 0af4 0120A0E1 		mov	r2, r1
 850 0af8 FEFFFFEB 		bl	PGMATRIX_SETSIZE
 851 0afc 0500A0E1 		mov	r0, r5
 852 0b00 FEFFFFEB 		bl	PGMATRIX_DETERMINANT2
 853 0b04 0080A0E1 		mov	r8, r0
 854 0b08 0201C0E3 		bic	r0, r0, #-2147483648
 855 0b0c FEFFFFEB 		bl	__extendsfdf2
 856 0b10 B0208FE2 		adr	r2, .L145
 857 0b14 0C0092E8 		ldmia	r2, {r2-r3}
 858 0b18 FEFFFFEB 		bl	__gedf2
 859 0b1c 000050E3 		cmp	r0, #0
 860 0b20 1A0000BA 		blt	.L138
 861 0b24 004095E5 		ldr	r4, [r5, #0]
 862 0b28 0C7095E5 		ldr	r7, [r5, #12]
 863 0b2c 0441A0E1 		mov	r4, r4, asl #2
 864 0b30 043087E0 		add	r3, r7, r4
 865 0b34 040093E5 		ldr	r0, [r3, #4]	@ float
 866 0b38 0810A0E1 		mov	r1, r8
 867 0b3c FEFFFFEB 		bl	__divsf3
 868 0b40 0C5096E5 		ldr	r5, [r6, #12]
 869 0b44 000085E5 		str	r0, [r5, #0]	@ float
 870 0b48 043097E7 		ldr	r3, [r7, r4]
 871 0b4c 0810A0E1 		mov	r1, r8
 872 0b50 020183E2 		add	r0, r3, #-2147483648
 873 0b54 FEFFFFEB 		bl	__divsf3
 874 0b58 006096E5 		ldr	r6, [r6, #0]
 875 0b5c 0661A0E1 		mov	r6, r6, asl #2
 876 0b60 060085E7 		str	r0, [r5, r6]	@ float
 877 0b64 043097E5 		ldr	r3, [r7, #4]
 878 0b68 0810A0E1 		mov	r1, r8
 879 0b6c 020183E2 		add	r0, r3, #-2147483648
 880 0b70 FEFFFFEB 		bl	__divsf3
 881 0b74 040085E5 		str	r0, [r5, #4]	@ float
 882 0b78 0810A0E1 		mov	r1, r8
 883 0b7c 000097E5 		ldr	r0, [r7, #0]	@ float
 884 0b80 FEFFFFEB 		bl	__divsf3
 885 0b84 065085E0 		add	r5, r5, r6
 886 0b88 040085E5 		str	r0, [r5, #4]	@ float
 887 0b8c F081BDE8 		ldmfd	sp!, {r4, r5, r6, r7, r8, pc}
 888              	.L138:
 889 0b90 0010A0E3 		mov	r1, #0
 890 0b94 0600A0E1 		mov	r0, r6
 891 0b98 0520A0E1 		mov	r2, r5
 892 0b9c 0130A0E1 		mov	r3, r1
 893 0ba0 F041BDE8 		ldmfd	sp!, {r4, r5, r6, r7, r8, lr}
 894 0ba4 FEFFFFEA 		b	PGMATRIX_GAUSSJORDAN
 895              	.L144:
 896 0ba8 28109FE5 		ldr	r1, .L145+16
 897              	.L143:
 898 0bac 28209FE5 		ldr	r2, .L145+20
 899 0bb0 28009FE5 		ldr	r0, .L145+24
 900 0bb4 FEFFFFEB 		bl	printf
 901 0bb8 24009FE5 		ldr	r0, .L145+28
 902 0bbc FEFFFFEB 		bl	printf
 903 0bc0 0100A0E3 		mov	r0, #1
 904 0bc4 FEFFFFEB 		bl	exit
 905              	.L146:
 906              		.align	2
 907              	.L145:
 908 0bc8 9997713D 		.word	1030854553
 909 0bcc 11EA2D81 		.word	-2127697391
 910 0bd0 24000000 		.word	.LC1
 911 0bd4 84000000 		.word	.LC6
 912 0bd8 64000000 		.word	.LC4
 913 0bdc 50010000 		.word	.LC14
 914 0be0 00000000 		.word	.LC0
 915 0be4 54000000 		.word	.LC3
 917              		.section	.rodata.str1.4
 918 0167 00       		.align	2
 919              	.LC15:
 920 0168 50474D41 		.ascii	"PGMATRIX_INVERSE_COPY\000"
 920      54524958 
 920      5F494E56 
 920      45525345 
 920      5F434F50 
 921 017e 0000     		.align	2
 922              	.LC16:
 923 0180 50474D41 		.ascii	"PGMATRIX_INVERSE_COPY: Singular matrix\000"
 923      54524958 
 923      5F494E56 
 923      45525345 
 923      5F434F50 
 924 01a7 00       		.text
 925              		.align	2
 926              		.global	PGMATRIX_INVERSE_COPY
 928              	PGMATRIX_INVERSE_COPY:
 929              		@ args = 0, pretend = 0, frame = 0
 930              		@ frame_needed = 0, uses_anonymous_args = 0
 931 0be8 70402DE9 		stmfd	sp!, {r4, r5, r6, lr}
 932 0bec 180091E8 		ldmia	r1, {r3, r4}	@ phole ldm
 933 0bf0 040053E1 		cmp	r3, r4
 934 0bf4 0150A0E1 		mov	r5, r1
 935 0bf8 0060A0E1 		mov	r6, r0
 936 0bfc 14119F15 		ldrne	r1, .L170+8
 937 0c00 3300001A 		bne	.L164
 938 0c04 000054E3 		cmp	r4, #0
 939 0c08 3000000A 		beq	.L165
 940 0c0c 010054E3 		cmp	r4, #1
 941 0c10 0B00000A 		beq	.L166
 942 0c14 020054E3 		cmp	r4, #2
 943 0c18 1F00000A 		beq	.L167
 944              	.L157:
 945 0c1c 030054E3 		cmp	r4, #3
 946 0c20 2300000A 		beq	.L168
 947              	.L159:
 948 0c24 030054E3 		cmp	r4, #3
 949 0c28 7080BDD8 		ldmlefd	sp!, {r4, r5, r6, pc}
 950              	.L169:
 951 0c2c 0010A0E3 		mov	r1, #0
 952 0c30 0600A0E1 		mov	r0, r6
 953 0c34 0520A0E1 		mov	r2, r5
 954 0c38 0130A0E1 		mov	r3, r1
 955 0c3c 7040BDE8 		ldmfd	sp!, {r4, r5, r6, lr}
 956 0c40 FEFFFFEA 		b	PGMATRIX_GAUSSJORDAN
 957              	.L166:
 958 0c44 0C3095E5 		ldr	r3, [r5, #12]
 959 0c48 002093E5 		ldr	r2, [r3, #0]
 960 0c4c 0201C2E3 		bic	r0, r2, #-2147483648
 961 0c50 FEFFFFEB 		bl	__extendsfdf2
 962 0c54 B4208FE2 		adr	r2, .L170
 963 0c58 0C0092E8 		ldmia	r2, {r2-r3}
 964 0c5c FEFFFFEB 		bl	__gedf2
 965 0c60 000050E3 		cmp	r0, #0
 966 0c64 210000BA 		blt	.L154
 967 0c68 0410A0E1 		mov	r1, r4
 968 0c6c 0420A0E1 		mov	r2, r4
 969 0c70 0600A0E1 		mov	r0, r6
 970 0c74 FEFFFFEB 		bl	PGMATRIX_SETSIZE
 971 0c78 0C3095E5 		ldr	r3, [r5, #12]
 972 0c7c FE05A0E3 		mov	r0, #1065353216
 973 0c80 001093E5 		ldr	r1, [r3, #0]	@ float
 974 0c84 FEFFFFEB 		bl	__divsf3
 975 0c88 044095E5 		ldr	r4, [r5, #4]
 976 0c8c 0C3096E5 		ldr	r3, [r6, #12]
 977 0c90 020054E3 		cmp	r4, #2
 978 0c94 000083E5 		str	r0, [r3, #0]	@ float
 979 0c98 DFFFFF1A 		bne	.L157
 980              	.L167:
 981 0c9c 0600A0E1 		mov	r0, r6
 982 0ca0 0510A0E1 		mov	r1, r5
 983 0ca4 FEFFFFEB 		bl	PGMATRIX_INVERSE2_COPY
 984 0ca8 044095E5 		ldr	r4, [r5, #4]
 985 0cac 030054E3 		cmp	r4, #3
 986 0cb0 DBFFFF1A 		bne	.L159
 987              	.L168:
 988 0cb4 0600A0E1 		mov	r0, r6
 989 0cb8 0510A0E1 		mov	r1, r5
 990 0cbc FEFFFFEB 		bl	PGMATRIX_INVERSE3_COPY
 991 0cc0 044095E5 		ldr	r4, [r5, #4]
 992 0cc4 030054E3 		cmp	r4, #3
 993 0cc8 7080BDD8 		ldmlefd	sp!, {r4, r5, r6, pc}
 994 0ccc D6FFFFEA 		b	.L169
 995              	.L165:
 996 0cd0 44109FE5 		ldr	r1, .L170+12
 997              	.L164:
 998 0cd4 44209FE5 		ldr	r2, .L170+16
 999 0cd8 44009FE5 		ldr	r0, .L170+20
 1000 0cdc FEFFFFEB 		bl	printf
 1001 0ce0 40009FE5 		ldr	r0, .L170+24
 1002 0ce4 FEFFFFEB 		bl	printf
 1003 0ce8 0100A0E3 		mov	r0, #1
 1004 0cec FEFFFFEB 		bl	exit
 1005              	.L154:
 1006 0cf0 34109FE5 		ldr	r1, .L170+28
 1007 0cf4 34209FE5 		ldr	r2, .L170+32
 1008 0cf8 24009FE5 		ldr	r0, .L170+20
 1009 0cfc FEFFFFEB 		bl	printf
 1010 0d00 20009FE5 		ldr	r0, .L170+24
 1011 0d04 FEFFFFEB 		bl	printf
 1012 0d08 0400A0E1 		mov	r0, r4
 1013 0d0c FEFFFFEB 		bl	exit
 1014              	.L171:
 1015              		.align	2
 1016              	.L170:
 1017 0d10 B2D29C3C 		.word	1016910514
 1018 0d14 BC89D897 		.word	-1747416644
 1019 0d18 24000000 		.word	.LC1
 1020 0d1c 64000000 		.word	.LC4
 1021 0d20 68010000 		.word	.LC15
 1022 0d24 00000000 		.word	.LC0
 1023 0d28 54000000 		.word	.LC3
 1024 0d2c D4000000 		.word	.LC10
 1025 0d30 80010000 		.word	.LC16
 1027              		.ident	"GCC: (GNU) 4.1.2 (WinARM 4/2007)"